(lp0
Vhttps://www.sec.gov/Archives/edgar/daily-index/2018/QTR1/form.20180102.idx
p1
aVhttps://www.sec.gov/Archives/edgar/daily-index/2018/QTR1/form.20180103.idx
p2
aVhttps://www.sec.gov/Archives/edgar/daily-index/2018/QTR1/form.20180104.idx
p3
aVhttps://www.sec.gov/Archives/edgar/daily-index/2018/QTR1/form.20180105.idx
p4
aVhttps://www.sec.gov/Archives/edgar/daily-index/2018/QTR1/form.20180108.idx
p5
aVhttps://www.sec.gov/Archives/edgar/daily-index/2018/QTR1/form.20180109.idx
p6
aVhttps://www.sec.gov/Archives/edgar/daily-index/2018/QTR1/form.20180110.idx
p7
aVhttps://www.sec.gov/Archives/edgar/daily-index/2018/QTR1/form.20180111.idx
p8
aVhttps://www.sec.gov/Archives/edgar/daily-index/2018/QTR1/form.20180112.idx
p9
aVhttps://www.sec.gov/Archives/edgar/daily-index/2018/QTR1/form.20180116.idx
p10
aVhttps://www.sec.gov/Archives/edgar/daily-index/2018/QTR1/form.20180117.idx
p11
aVhttps://www.sec.gov/Archives/edgar/daily-index/2018/QTR1/form.20180118.idx
p12
aVhttps://www.sec.gov/Archives/edgar/daily-index/2018/QTR1/form.20180119.idx
p13
aVhttps://www.sec.gov/Archives/edgar/daily-index/2018/QTR1/form.20180122.idx
p14
aVhttps://www.sec.gov/Archives/edgar/daily-index/2018/QTR1/form.20180123.idx
p15
aVhttps://www.sec.gov/Archives/edgar/daily-index/2018/QTR1/form.20180124.idx
p16
aVhttps://www.sec.gov/Archives/edgar/daily-index/2018/QTR1/form.20180125.idx
p17
aVhttps://www.sec.gov/Archives/edgar/daily-index/2018/QTR1/form.20180126.idx
p18
aVhttps://www.sec.gov/Archives/edgar/daily-index/2018/QTR1/form.20180129.idx
p19
aVhttps://www.sec.gov/Archives/edgar/daily-index/2018/QTR1/form.20180130.idx
p20
aVhttps://www.sec.gov/Archives/edgar/daily-index/2018/QTR1/form.20180131.idx
p21
aVhttps://www.sec.gov/Archives/edgar/daily-index/2018/QTR1/form.20180201.idx
p22
aVhttps://www.sec.gov/Archives/edgar/daily-index/2018/QTR1/form.20180202.idx
p23
aVhttps://www.sec.gov/Archives/edgar/daily-index/2018/QTR1/form.20180205.idx
p24
aVhttps://www.sec.gov/Archives/edgar/daily-index/2018/QTR1/form.20180206.idx
p25
aVhttps://www.sec.gov/Archives/edgar/daily-index/2018/QTR1/form.20180207.idx
p26
aVhttps://www.sec.gov/Archives/edgar/daily-index/2018/QTR1/form.20180208.idx
p27
aVhttps://www.sec.gov/Archives/edgar/daily-index/2018/QTR1/form.20180209.idx
p28
aVhttps://www.sec.gov/Archives/edgar/daily-index/2018/QTR1/form.20180212.idx
p29
aVhttps://www.sec.gov/Archives/edgar/daily-index/2018/QTR1/form.20180213.idx
p30
aVhttps://www.sec.gov/Archives/edgar/daily-index/2018/QTR1/form.20180214.idx
p31
aVhttps://www.sec.gov/Archives/edgar/daily-index/2018/QTR1/form.20180215.idx
p32
aVhttps://www.sec.gov/Archives/edgar/daily-index/2018/QTR1/form.20180216.idx
p33
aVhttps://www.sec.gov/Archives/edgar/daily-index/2018/QTR1/form.20180220.idx
p34
aVhttps://www.sec.gov/Archives/edgar/daily-index/2018/QTR1/form.20180221.idx
p35
aVhttps://www.sec.gov/Archives/edgar/daily-index/2018/QTR1/form.20180222.idx
p36
aVhttps://www.sec.gov/Archives/edgar/daily-index/2018/QTR1/form.20180223.idx
p37
aVhttps://www.sec.gov/Archives/edgar/daily-index/2018/QTR1/form.20180226.idx
p38
aVhttps://www.sec.gov/Archives/edgar/daily-index/2018/QTR1/form.20180227.idx
p39
aVhttps://www.sec.gov/Archives/edgar/daily-index/2018/QTR1/form.20180228.idx
p40
aVhttps://www.sec.gov/Archives/edgar/daily-index/2018/QTR1/form.20180301.idx
p41
aVhttps://www.sec.gov/Archives/edgar/daily-index/2018/QTR1/form.20180302.idx
p42
aVhttps://www.sec.gov/Archives/edgar/daily-index/2018/QTR1/form.20180305.idx
p43
aVhttps://www.sec.gov/Archives/edgar/daily-index/2018/QTR1/form.20180306.idx
p44
aVhttps://www.sec.gov/Archives/edgar/daily-index/2018/QTR1/form.20180307.idx
p45
aVhttps://www.sec.gov/Archives/edgar/daily-index/2018/QTR1/form.20180308.idx
p46
aVhttps://www.sec.gov/Archives/edgar/daily-index/2018/QTR1/form.20180309.idx
p47
aVhttps://www.sec.gov/Archives/edgar/daily-index/2018/QTR1/form.20180312.idx
p48
aVhttps://www.sec.gov/Archives/edgar/daily-index/2018/QTR1/form.20180313.idx
p49
aVhttps://www.sec.gov/Archives/edgar/daily-index/2018/QTR1/form.20180314.idx
p50
aVhttps://www.sec.gov/Archives/edgar/daily-index/2018/QTR1/form.20180315.idx
p51
aVhttps://www.sec.gov/Archives/edgar/daily-index/2018/QTR1/form.20180316.idx
p52
aVhttps://www.sec.gov/Archives/edgar/daily-index/2018/QTR1/form.20180319.idx
p53
aVhttps://www.sec.gov/Archives/edgar/daily-index/2018/QTR1/form.20180320.idx
p54
aVhttps://www.sec.gov/Archives/edgar/daily-index/2018/QTR1/form.20180321.idx
p55
aVhttps://www.sec.gov/Archives/edgar/daily-index/2018/QTR1/form.20180322.idx
p56
aVhttps://www.sec.gov/Archives/edgar/daily-index/2018/QTR1/form.20180323.idx
p57
aVhttps://www.sec.gov/Archives/edgar/daily-index/2018/QTR1/form.20180326.idx
p58
aVhttps://www.sec.gov/Archives/edgar/daily-index/2018/QTR1/form.20180327.idx
p59
aVhttps://www.sec.gov/Archives/edgar/daily-index/2018/QTR1/form.20180328.idx
p60
a.